---
triple:          'arm64-apple-darwin'
binary-path:     '/Users/lzbd/Documents/Desktop/C++/output/StringLongestPrefix'
relocations:
  - { offsetInCU: 0x2274, offset: 0x2274, size: 0x8, addend: 0x0, symName: __ZNSt3__111__sift_downB7v160006INS_17_ClassicAlgPolicyERNS_6__lessINS_12basic_stringIcNS_11char_traitsIcEENS_9allocatorIcEEEES8_EEPS8_EEvT1_OT0_NS_15iterator_traitsISC_E15difference_typeESC_, symObjAddr: 0xA70, symBinAddr: 0x10000197C, symSize: 0x260 }
  - { offsetInCU: 0x234D, offset: 0x234D, size: 0x8, addend: 0x0, symName: __ZNSt3__117__floyd_sift_downB7v160006INS_17_ClassicAlgPolicyERNS_6__lessINS_12basic_stringIcNS_11char_traitsIcEENS_9allocatorIcEEEES8_EEPS8_EET1_SC_OT0_NS_15iterator_traitsISC_E15difference_typeE, symObjAddr: 0x1578, symBinAddr: 0x100002484, symSize: 0x108 }
  - { offsetInCU: 0x23E5, offset: 0x23E5, size: 0x8, addend: 0x0, symName: __ZNSt3__111__introsortINS_17_ClassicAlgPolicyERNS_6__lessINS_12basic_stringIcNS_11char_traitsIcEENS_9allocatorIcEEEES8_EEPS8_EEvT1_SC_T0_NS_15iterator_traitsISC_E15difference_typeE, symObjAddr: 0x1858, symBinAddr: 0x100002764, symSize: 0x6D0 }
  - { offsetInCU: 0x2540, offset: 0x2540, size: 0x8, addend: 0x0, symName: __ZNSt3__118__insertion_sort_3B7v160006INS_17_ClassicAlgPolicyERNS_6__lessINS_12basic_stringIcNS_11char_traitsIcEENS_9allocatorIcEEEES8_EEPS8_EEvT1_SC_T0_, symObjAddr: 0x2028, symBinAddr: 0x100002F34, symSize: 0x188 }
  - { offsetInCU: 0x2603, offset: 0x2603, size: 0x8, addend: 0x0, symName: __ZNSt3__127__insertion_sort_incompleteIRNS_6__lessINS_12basic_stringIcNS_11char_traitsIcEENS_9allocatorIcEEEES7_EEPS7_EEbT0_SB_T_, symObjAddr: 0x23DC, symBinAddr: 0x1000032E8, symSize: 0x37C }
  - { offsetInCU: 0x31C9, offset: 0x31C9, size: 0x8, addend: 0x0, symName: __ZNSt3__14sortB7v160006IPNS_12basic_stringIcNS_11char_traitsIcEENS_9allocatorIcEEEEEEvT_S8_, symObjAddr: 0x210, symBinAddr: 0x10000111C, symSize: 0x2C }
  - { offsetInCU: 0x320B, offset: 0x320B, size: 0x8, addend: 0x0, symName: __ZNSt3__13minB7v160006ImEERKT_S3_S3_, symObjAddr: 0x23C, symBinAddr: 0x100001148, symSize: 0x2C }
  - { offsetInCU: 0x3259, offset: 0x3259, size: 0x8, addend: 0x0, symName: __ZNSt3__130__libcpp_is_constant_evaluatedB7v160006Ev, symObjAddr: 0x5EC, symBinAddr: 0x1000014F8, symSize: 0xC }
  - { offsetInCU: 0x3276, offset: 0x3276, size: 0x8, addend: 0x0, symName: __ZNSt3__14sortB7v160006IPNS_12basic_stringIcNS_11char_traitsIcEENS_9allocatorIcEEEENS_6__lessIS6_S6_EEEEvT_SA_T0_, symObjAddr: 0x630, symBinAddr: 0x10000153C, symSize: 0x30 }
  - { offsetInCU: 0x32D0, offset: 0x32D0, size: 0x8, addend: 0x0, symName: __ZNSt3__111__sort_implB7v160006INS_17_ClassicAlgPolicyEPNS_12basic_stringIcNS_11char_traitsIcEENS_9allocatorIcEEEENS_6__lessIS7_S7_EEEEvT0_SB_RT1_, symObjAddr: 0x660, symBinAddr: 0x10000156C, symSize: 0x8C }
  - { offsetInCU: 0x3377, offset: 0x3377, size: 0x8, addend: 0x0, symName: __ZNSt3__123__debug_randomize_rangeB7v160006INS_17_ClassicAlgPolicyEPNS_12basic_stringIcNS_11char_traitsIcEENS_9allocatorIcEEEES8_EEvT0_T1_, symObjAddr: 0x6EC, symBinAddr: 0x1000015F8, symSize: 0x14 }
  - { offsetInCU: 0x33C8, offset: 0x33C8, size: 0x8, addend: 0x0, symName: __ZNSt3__114__partial_sortB7v160006INS_17_ClassicAlgPolicyENS_6__lessINS_12basic_stringIcNS_11char_traitsIcEENS_9allocatorIcEEEES8_EEPS8_SA_EET1_SB_SB_T2_RT0_, symObjAddr: 0x700, symBinAddr: 0x10000160C, symSize: 0x94 }
  - { offsetInCU: 0x3450, offset: 0x3450, size: 0x8, addend: 0x0, symName: __ZNSt3__16__sortIRNS_6__lessINS_12basic_stringIcNS_11char_traitsIcEENS_9allocatorIcEEEES7_EEPS7_EEvT0_SB_T_, symObjAddr: 0x794, symBinAddr: 0x1000016A0, symSize: 0x68 }
  - { offsetInCU: 0x34E0, offset: 0x34E0, size: 0x8, addend: 0x0, symName: __ZNSt3__113__unwrap_iterB7v160006IPNS_12basic_stringIcNS_11char_traitsIcEENS_9allocatorIcEEEENS_18__unwrap_iter_implIS7_Lb1EEELi0EEEDTclsrT0_8__unwrapclsr3stdE7declvalIT_EEEESB_, symObjAddr: 0x7FC, symBinAddr: 0x100001708, symSize: 0x24 }
  - { offsetInCU: 0x35BE, offset: 0x35BE, size: 0x8, addend: 0x0, symName: __ZNSt3__119__partial_sort_implB7v160006INS_17_ClassicAlgPolicyERNS_6__lessINS_12basic_stringIcNS_11char_traitsIcEENS_9allocatorIcEEEES8_EEPS8_SB_EET1_SC_SC_T2_OT0_, symObjAddr: 0x838, symBinAddr: 0x100001744, symSize: 0x110 }
  - { offsetInCU: 0x3654, offset: 0x3654, size: 0x8, addend: 0x0, symName: __ZNSt3__111__make_heapB7v160006INS_17_ClassicAlgPolicyERNS_6__lessINS_12basic_stringIcNS_11char_traitsIcEENS_9allocatorIcEEEES8_EEPS8_EEvT1_SC_OT0_, symObjAddr: 0x948, symBinAddr: 0x100001854, symSize: 0xC0 }
  - { offsetInCU: 0x3731, offset: 0x3731, size: 0x8, addend: 0x0, symName: __ZNSt3__111__sort_heapB7v160006INS_17_ClassicAlgPolicyERNS_6__lessINS_12basic_stringIcNS_11char_traitsIcEENS_9allocatorIcEEEES8_EEPS8_EEvT1_SC_OT0_, symObjAddr: 0xCD0, symBinAddr: 0x100001BDC, symSize: 0x90 }
  - { offsetInCU: 0x37C5, offset: 0x37C5, size: 0x8, addend: 0x0, symName: __ZNSt3__1ltB7v160006IcNS_11char_traitsIcEENS_9allocatorIcEEEEbRKNS_12basic_stringIT_T0_T1_EESB_, symObjAddr: 0xD60, symBinAddr: 0x100001C6C, symSize: 0x38 }
  - { offsetInCU: 0x3841, offset: 0x3841, size: 0x8, addend: 0x0, symName: __ZNSt3__118__constexpr_memcmpB7v160006IcEEiPKT_S3_m, symObjAddr: 0x104C, symBinAddr: 0x100001F58, symSize: 0x34 }
  - { offsetInCU: 0x3892, offset: 0x3892, size: 0x8, addend: 0x0, symName: __ZNSt3__112__to_addressB7v160006IKcEEPT_S3_, symObjAddr: 0x1080, symBinAddr: 0x100001F8C, symSize: 0x14 }
  - { offsetInCU: 0x38FA, offset: 0x38FA, size: 0x8, addend: 0x0, symName: __ZNSt3__19iter_swapB7v160006IPNS_12basic_stringIcNS_11char_traitsIcEENS_9allocatorIcEEEES7_EEvT_T0_, symObjAddr: 0x11B4, symBinAddr: 0x1000020C0, symSize: 0x2C }
  - { offsetInCU: 0x3942, offset: 0x3942, size: 0x8, addend: 0x0, symName: __ZNSt3__14swapB7v160006IcNS_11char_traitsIcEENS_9allocatorIcEEEEvRNS_12basic_stringIT_T0_T1_EESA_, symObjAddr: 0x11E0, symBinAddr: 0x1000020EC, symSize: 0x2C }
  - { offsetInCU: 0x3996, offset: 0x3996, size: 0x8, addend: 0x0, symName: __ZNSt3__125__debug_db_invalidate_allB7v160006INS_12basic_stringIcNS_11char_traitsIcEENS_9allocatorIcEEEEEEvPT_, symObjAddr: 0x12B4, symBinAddr: 0x1000021C0, symSize: 0x10 }
  - { offsetInCU: 0x39C7, offset: 0x39C7, size: 0x8, addend: 0x0, symName: __ZNSt3__115__debug_db_swapB7v160006INS_12basic_stringIcNS_11char_traitsIcEENS_9allocatorIcEEEEEEvPT_S8_, symObjAddr: 0x12C4, symBinAddr: 0x1000021D0, symSize: 0x14 }
  - { offsetInCU: 0x3A06, offset: 0x3A06, size: 0x8, addend: 0x0, symName: __ZNSt3__14swapB7v160006INS_12basic_stringIcNS_11char_traitsIcEENS_9allocatorIcEEE5__repEEEvRT_S9_, symObjAddr: 0x12D8, symBinAddr: 0x1000021E4, symSize: 0x54 }
  - { offsetInCU: 0x3A57, offset: 0x3A57, size: 0x8, addend: 0x0, symName: __ZNSt3__116__swap_allocatorB7v160006INS_9allocatorIcEEEEvRT_S4_, symObjAddr: 0x1350, symBinAddr: 0x10000225C, symSize: 0x2C }
  - { offsetInCU: 0x3A96, offset: 0x3A96, size: 0x8, addend: 0x0, symName: __ZNSt3__116__swap_allocatorB7v160006INS_9allocatorIcEEEEvRT_S4_NS_17integral_constantIbLb0EEE, symObjAddr: 0x13B4, symBinAddr: 0x1000022C0, symSize: 0x14 }
  - { offsetInCU: 0x3AFB, offset: 0x3AFB, size: 0x8, addend: 0x0, symName: __ZNSt3__110__pop_heapB7v160006INS_17_ClassicAlgPolicyENS_6__lessINS_12basic_stringIcNS_11char_traitsIcEENS_9allocatorIcEEEES8_EEPS8_EEvT1_SB_RT0_NS_15iterator_traitsISB_E15difference_typeE, symObjAddr: 0x142C, symBinAddr: 0x100002338, symSize: 0x14C }
  - { offsetInCU: 0x3BA3, offset: 0x3BA3, size: 0x8, addend: 0x0, symName: __ZNSt3__19__sift_upB7v160006INS_17_ClassicAlgPolicyERNS_6__lessINS_12basic_stringIcNS_11char_traitsIcEENS_9allocatorIcEEEES8_EEPS8_EEvT1_SC_OT0_NS_15iterator_traitsISC_E15difference_typeE, symObjAddr: 0x1680, symBinAddr: 0x10000258C, symSize: 0x170 }
  - { offsetInCU: 0x3C43, offset: 0x3C43, size: 0x8, addend: 0x0, symName: __ZNSt3__17__log2iB7v160006IlEET_S1_, symObjAddr: 0x17F0, symBinAddr: 0x1000026FC, symSize: 0x54 }
  - { offsetInCU: 0x3CAD, offset: 0x3CAD, size: 0x8, addend: 0x0, symName: __ZNSt3__112__libcpp_clzB7v160006Em, symObjAddr: 0x1F40, symBinAddr: 0x100002E4C, symSize: 0x1C }
  - { offsetInCU: 0x3CD9, offset: 0x3CD9, size: 0x8, addend: 0x0, symName: __ZNSt3__124__sort3_maybe_branchlessB7v160006INS_17_ClassicAlgPolicyERNS_6__lessINS_12basic_stringIcNS_11char_traitsIcEENS_9allocatorIcEEEES8_EEPS8_EENS_9enable_ifIXntsr21__use_branchless_sortIT0_T1_EE5valueEvE4typeESE_SE_SE_SD_, symObjAddr: 0x1F5C, symBinAddr: 0x100002E68, symSize: 0x3C }
  - { offsetInCU: 0x3D4A, offset: 0x3D4A, size: 0x8, addend: 0x0, symName: __ZNSt3__124__sort4_maybe_branchlessB7v160006INS_17_ClassicAlgPolicyERNS_6__lessINS_12basic_stringIcNS_11char_traitsIcEENS_9allocatorIcEEEES8_EEPS8_EENS_9enable_ifIXntsr21__use_branchless_sortIT0_T1_EE5valueEvE4typeESE_SE_SE_SE_SD_, symObjAddr: 0x1F98, symBinAddr: 0x100002EA4, symSize: 0x44 }
  - { offsetInCU: 0x3DCF, offset: 0x3DCF, size: 0x8, addend: 0x0, symName: __ZNSt3__124__sort5_maybe_branchlessB7v160006INS_17_ClassicAlgPolicyERNS_6__lessINS_12basic_stringIcNS_11char_traitsIcEENS_9allocatorIcEEEES8_EEPS8_EENS_9enable_ifIXntsr21__use_branchless_sortIT0_T1_EE5valueEvE4typeESE_SE_SE_SE_SE_SD_, symObjAddr: 0x1FDC, symBinAddr: 0x100002EE8, symSize: 0x4C }
  - { offsetInCU: 0x3E63, offset: 0x3E63, size: 0x8, addend: 0x0, symName: __ZNSt3__114__partial_sortB7v160006INS_17_ClassicAlgPolicyERNS_6__lessINS_12basic_stringIcNS_11char_traitsIcEENS_9allocatorIcEEEES8_EEPS8_SB_EET1_SC_SC_T2_RT0_, symObjAddr: 0x21B0, symBinAddr: 0x1000030BC, symSize: 0x94 }
  - { offsetInCU: 0x3EEB, offset: 0x3EEB, size: 0x8, addend: 0x0, symName: __ZNSt3__119__sort5_wrap_policyB7v160006INS_17_ClassicAlgPolicyERNS_6__lessINS_12basic_stringIcNS_11char_traitsIcEENS_9allocatorIcEEEES8_EEPS8_EEjT1_SC_SC_SC_SC_T0_, symObjAddr: 0x2244, symBinAddr: 0x100003150, symSize: 0x54 }
  - { offsetInCU: 0x3F91, offset: 0x3F91, size: 0x8, addend: 0x0, symName: __ZNSt3__17__sort3B7v160006INS_17_ClassicAlgPolicyERNS_6__lessINS_12basic_stringIcNS_11char_traitsIcEENS_9allocatorIcEEEES8_EEPS8_EEjT1_SC_SC_T0_, symObjAddr: 0x2298, symBinAddr: 0x1000031A4, symSize: 0x144 }
  - { offsetInCU: 0x4010, offset: 0x4010, size: 0x8, addend: 0x0, symName: __ZNSt3__17__sort4B7v160006INS_17_ClassicAlgPolicyERNS_6__lessINS_12basic_stringIcNS_11char_traitsIcEENS_9allocatorIcEEEES8_EEPS8_EEjT1_SC_SC_SC_T0_, symObjAddr: 0x2770, symBinAddr: 0x10000367C, symSize: 0xE4 }
  - { offsetInCU: 0x409D, offset: 0x409D, size: 0x8, addend: 0x0, symName: __ZNSt3__17__sort5IRNS_6__lessINS_12basic_stringIcNS_11char_traitsIcEENS_9allocatorIcEEEES7_EEPS7_EEjT0_SB_SB_SB_SB_T_, symObjAddr: 0x2854, symBinAddr: 0x100003760, symSize: 0x12C }
  - { offsetInCU: 0x419B, offset: 0x419B, size: 0x8, addend: 0x0, symName: __ZNSt3__112__to_addressB7v160006INS_12basic_stringIcNS_11char_traitsIcEENS_9allocatorIcEEEEEEPT_S8_, symObjAddr: 0x29A4, symBinAddr: 0x1000038B0, symSize: 0x14 }
  - { offsetInCU: 0x41D0, offset: 0x41D0, size: 0x8, addend: 0x0, symName: __ZNSt3__13minB7v160006ImNS_6__lessImmEEEERKT_S5_S5_T0_, symObjAddr: 0x29B8, symBinAddr: 0x1000038C4, symSize: 0x54 }
  - { offsetInCU: 0x4298, offset: 0x4298, size: 0x8, addend: 0x0, symName: __ZNSt3__119__debug_db_insert_cB7v160006INS_12basic_stringIcNS_11char_traitsIcEENS_9allocatorIcEEEEEEvPT_, symObjAddr: 0x2BDC, symBinAddr: 0x100003AE8, symSize: 0x10 }
  - { offsetInCU: 0x42C9, offset: 0x42C9, size: 0x8, addend: 0x0, symName: __ZNSt3__118__constexpr_strlenB7v160006EPKc, symObjAddr: 0x2CA8, symBinAddr: 0x100003BB4, symSize: 0x24 }
  - { offsetInCU: 0x6612, offset: 0x6612, size: 0x8, addend: 0x0, symName: __Z7finderrPNSt3__112basic_stringIcNS_11char_traitsIcEENS_9allocatorIcEEEEi, symObjAddr: 0x0, symBinAddr: 0x100000F0C, symSize: 0x1BC }
  - { offsetInCU: 0x6685, offset: 0x6685, size: 0x8, addend: 0x0, symName: __ZNKSt3__112basic_stringIcNS_11char_traitsIcEENS_9allocatorIcEEE4sizeB7v160006Ev, symObjAddr: 0x1BC, symBinAddr: 0x1000010C8, symSize: 0x54 }
  - { offsetInCU: 0x66A9, offset: 0x66A9, size: 0x8, addend: 0x0, symName: __ZNSt3__112basic_stringIcNS_11char_traitsIcEENS_9allocatorIcEEEixB7v160006Em, symObjAddr: 0x268, symBinAddr: 0x100001174, symSize: 0x30 }
  - { offsetInCU: 0x66DC, offset: 0x66DC, size: 0x8, addend: 0x0, symName: _main, symObjAddr: 0x2A4, symBinAddr: 0x1000011B0, symSize: 0x244 }
  - { offsetInCU: 0x6728, offset: 0x6728, size: 0x8, addend: 0x0, symName: __ZNSt3__112basic_stringIcNS_11char_traitsIcEENS_9allocatorIcEEEC1B7v160006IDnEEPKc, symObjAddr: 0x4E8, symBinAddr: 0x1000013F4, symSize: 0x34 }
  - { offsetInCU: 0x6764, offset: 0x6764, size: 0x8, addend: 0x0, symName: __ZNKSt3__112basic_stringIcNS_11char_traitsIcEENS_9allocatorIcEEE9__is_longB7v160006Ev, symObjAddr: 0x51C, symBinAddr: 0x100001428, symSize: 0x74 }
  - { offsetInCU: 0x6788, offset: 0x6788, size: 0x8, addend: 0x0, symName: __ZNKSt3__112basic_stringIcNS_11char_traitsIcEENS_9allocatorIcEEE15__get_long_sizeB7v160006Ev, symObjAddr: 0x590, symBinAddr: 0x10000149C, symSize: 0x28 }
  - { offsetInCU: 0x67AC, offset: 0x67AC, size: 0x8, addend: 0x0, symName: __ZNKSt3__112basic_stringIcNS_11char_traitsIcEENS_9allocatorIcEEE16__get_short_sizeB7v160006Ev, symObjAddr: 0x5B8, symBinAddr: 0x1000014C4, symSize: 0x34 }
  - { offsetInCU: 0x67D0, offset: 0x67D0, size: 0x8, addend: 0x0, symName: __ZNKSt3__117__compressed_pairINS_12basic_stringIcNS_11char_traitsIcEENS_9allocatorIcEEE5__repES5_E5firstB7v160006Ev, symObjAddr: 0x5F8, symBinAddr: 0x100001504, symSize: 0x24 }
  - { offsetInCU: 0x67F4, offset: 0x67F4, size: 0x8, addend: 0x0, symName: __ZNKSt3__122__compressed_pair_elemINS_12basic_stringIcNS_11char_traitsIcEENS_9allocatorIcEEE5__repELi0ELb0EE5__getB7v160006Ev, symObjAddr: 0x61C, symBinAddr: 0x100001528, symSize: 0x14 }
  - { offsetInCU: 0x6818, offset: 0x6818, size: 0x8, addend: 0x0, symName: __ZNSt3__18_IterOpsINS_17_ClassicAlgPolicyEE4nextB7v160006IPNS_12basic_stringIcNS_11char_traitsIcEENS_9allocatorIcEEEEEET_SB_SB_, symObjAddr: 0x820, symBinAddr: 0x10000172C, symSize: 0x18 }
  - { offsetInCU: 0x6857, offset: 0x6857, size: 0x8, addend: 0x0, symName: __ZNKSt3__16__lessINS_12basic_stringIcNS_11char_traitsIcEENS_9allocatorIcEEEES6_EclB7v160006ERKS6_S9_, symObjAddr: 0xA08, symBinAddr: 0x100001914, symSize: 0x34 }
  - { offsetInCU: 0x689C, offset: 0x689C, size: 0x8, addend: 0x0, symName: __ZNSt3__18_IterOpsINS_17_ClassicAlgPolicyEE9iter_swapB7v160006IRPNS_12basic_stringIcNS_11char_traitsIcEENS_9allocatorIcEEEESB_EEvOT_OT0_, symObjAddr: 0xA3C, symBinAddr: 0x100001948, symSize: 0x34 }
  - { offsetInCU: 0x68DE, offset: 0x68DE, size: 0x8, addend: 0x0, symName: __ZNKSt3__112basic_stringIcNS_11char_traitsIcEENS_9allocatorIcEEE7compareB7v160006ERKS5_, symObjAddr: 0xD98, symBinAddr: 0x100001CA4, symSize: 0x4C }
  - { offsetInCU: 0x6913, offset: 0x6913, size: 0x8, addend: 0x0, symName: __ZNKSt3__112basic_stringIcNS_11char_traitsIcEENS_9allocatorIcEEE7compareINS_17basic_string_viewIcS2_EEEENS_9enable_ifIXsr33__can_be_converted_to_string_viewIcS2_T_EE5valueEiE4typeERKSA_, symObjAddr: 0xDE4, symBinAddr: 0x100001CF0, symSize: 0x140 }
  - { offsetInCU: 0x698E, offset: 0x698E, size: 0x8, addend: 0x0, symName: __ZNKSt3__112basic_stringIcNS_11char_traitsIcEENS_9allocatorIcEEEcvNS_17basic_string_viewIcS2_EEB7v160006Ev, symObjAddr: 0xF24, symBinAddr: 0x100001E30, symSize: 0x50 }
  - { offsetInCU: 0x69B2, offset: 0x69B2, size: 0x8, addend: 0x0, symName: __ZNKSt3__117basic_string_viewIcNS_11char_traitsIcEEE4sizeB7v160006Ev, symObjAddr: 0xF74, symBinAddr: 0x100001E80, symSize: 0x18 }
  - { offsetInCU: 0x69D6, offset: 0x69D6, size: 0x8, addend: 0x0, symName: __ZNSt3__111char_traitsIcE7compareEPKcS3_m, symObjAddr: 0xF8C, symBinAddr: 0x100001E98, symSize: 0x80 }
  - { offsetInCU: 0x6A14, offset: 0x6A14, size: 0x8, addend: 0x0, symName: __ZNKSt3__112basic_stringIcNS_11char_traitsIcEENS_9allocatorIcEEE4dataB7v160006Ev, symObjAddr: 0x100C, symBinAddr: 0x100001F18, symSize: 0x28 }
  - { offsetInCU: 0x6A38, offset: 0x6A38, size: 0x8, addend: 0x0, symName: __ZNKSt3__117basic_string_viewIcNS_11char_traitsIcEEE4dataB7v160006Ev, symObjAddr: 0x1034, symBinAddr: 0x100001F40, symSize: 0x18 }
  - { offsetInCU: 0x6A5C, offset: 0x6A5C, size: 0x8, addend: 0x0, symName: __ZNKSt3__112basic_stringIcNS_11char_traitsIcEENS_9allocatorIcEEE13__get_pointerB7v160006Ev, symObjAddr: 0x1094, symBinAddr: 0x100001FA0, symSize: 0x54 }
  - { offsetInCU: 0x6A80, offset: 0x6A80, size: 0x8, addend: 0x0, symName: __ZNKSt3__112basic_stringIcNS_11char_traitsIcEENS_9allocatorIcEEE18__get_long_pointerB7v160006Ev, symObjAddr: 0x10E8, symBinAddr: 0x100001FF4, symSize: 0x28 }
  - { offsetInCU: 0x6AA4, offset: 0x6AA4, size: 0x8, addend: 0x0, symName: __ZNKSt3__112basic_stringIcNS_11char_traitsIcEENS_9allocatorIcEEE19__get_short_pointerB7v160006Ev, symObjAddr: 0x1110, symBinAddr: 0x10000201C, symSize: 0x28 }
  - { offsetInCU: 0x6AC8, offset: 0x6AC8, size: 0x8, addend: 0x0, symName: __ZNSt3__114pointer_traitsIPKcE10pointer_toB7v160006ERS1_, symObjAddr: 0x1138, symBinAddr: 0x100002044, symSize: 0x14 }
  - { offsetInCU: 0x6AEA, offset: 0x6AEA, size: 0x8, addend: 0x0, symName: __ZNSt3__117basic_string_viewIcNS_11char_traitsIcEEEC1B7v160006EPKcm, symObjAddr: 0x114C, symBinAddr: 0x100002058, symSize: 0x3C }
  - { offsetInCU: 0x6B30, offset: 0x6B30, size: 0x8, addend: 0x0, symName: __ZNSt3__117basic_string_viewIcNS_11char_traitsIcEEEC2B7v160006EPKcm, symObjAddr: 0x1188, symBinAddr: 0x100002094, symSize: 0x2C }
  - { offsetInCU: 0x6B76, offset: 0x6B76, size: 0x8, addend: 0x0, symName: __ZNSt3__112basic_stringIcNS_11char_traitsIcEENS_9allocatorIcEEE4swapB7v160006ERS5_, symObjAddr: 0x120C, symBinAddr: 0x100002118, symSize: 0xA8 }
  - { offsetInCU: 0x6BAB, offset: 0x6BAB, size: 0x8, addend: 0x0, symName: __ZNSt3__117__compressed_pairINS_12basic_stringIcNS_11char_traitsIcEENS_9allocatorIcEEE5__repES5_E5firstB7v160006Ev, symObjAddr: 0x132C, symBinAddr: 0x100002238, symSize: 0x24 }
  - { offsetInCU: 0x6BCF, offset: 0x6BCF, size: 0x8, addend: 0x0, symName: __ZNSt3__112basic_stringIcNS_11char_traitsIcEENS_9allocatorIcEEE7__allocB7v160006Ev, symObjAddr: 0x137C, symBinAddr: 0x100002288, symSize: 0x24 }
  - { offsetInCU: 0x6BF3, offset: 0x6BF3, size: 0x8, addend: 0x0, symName: __ZNSt3__122__compressed_pair_elemINS_12basic_stringIcNS_11char_traitsIcEENS_9allocatorIcEEE5__repELi0ELb0EE5__getB7v160006Ev, symObjAddr: 0x13A0, symBinAddr: 0x1000022AC, symSize: 0x14 }
  - { offsetInCU: 0x6C17, offset: 0x6C17, size: 0x8, addend: 0x0, symName: __ZNSt3__117__compressed_pairINS_12basic_stringIcNS_11char_traitsIcEENS_9allocatorIcEEE5__repES5_E6secondB7v160006Ev, symObjAddr: 0x13C8, symBinAddr: 0x1000022D4, symSize: 0x24 }
  - { offsetInCU: 0x6C3B, offset: 0x6C3B, size: 0x8, addend: 0x0, symName: __ZNSt3__122__compressed_pair_elemINS_9allocatorIcEELi1ELb1EE5__getB7v160006Ev, symObjAddr: 0x13EC, symBinAddr: 0x1000022F8, symSize: 0x14 }
  - { offsetInCU: 0x6C6E, offset: 0x6C6E, size: 0x8, addend: 0x0, symName: __ZNSt3__18_IterOpsINS_17_ClassicAlgPolicyEE11__iter_moveB7v160006IRPNS_12basic_stringIcNS_11char_traitsIcEENS_9allocatorIcEEEEEENS_9enable_ifIXsr12is_referenceIDTdeclsr3stdE7declvalIRT_EEEEE5valueEDTclsr3stdE4movedeclsr3stdE7declvalISE_EEEEE4typeEOSD_, symObjAddr: 0x1400, symBinAddr: 0x10000230C, symSize: 0x28 }
  - { offsetInCU: 0x6C99, offset: 0x6C99, size: 0x8, addend: 0x0, symName: __ZNSt3__18_IterOpsINS_17_ClassicAlgPolicyEE25__validate_iter_referenceB7v160006IRPNS_12basic_stringIcNS_11char_traitsIcEENS_9allocatorIcEEEEEEvv, symObjAddr: 0x1428, symBinAddr: 0x100002334, symSize: 0x4 }
  - { offsetInCU: 0x6CBB, offset: 0x6CBB, size: 0x8, addend: 0x0, symName: __ZNSt3__116_UnwrapAlgPolicyIRNS_6__lessINS_12basic_stringIcNS_11char_traitsIcEENS_9allocatorIcEEEES7_EEE10__get_compB7v160006ES9_, symObjAddr: 0x1844, symBinAddr: 0x100002750, symSize: 0x14 }
  - { offsetInCU: 0x6CDD, offset: 0x6CDD, size: 0x8, addend: 0x0, symName: __ZNSt3__118__unwrap_iter_implIPNS_12basic_stringIcNS_11char_traitsIcEENS_9allocatorIcEEEELb1EE8__unwrapB7v160006ES7_, symObjAddr: 0x2980, symBinAddr: 0x10000388C, symSize: 0x24 }
  - { offsetInCU: 0x6D13, offset: 0x6D13, size: 0x8, addend: 0x0, symName: __ZNKSt3__16__lessImmEclB7v160006ERKmS3_, symObjAddr: 0x2A0C, symBinAddr: 0x100003918, symSize: 0x34 }
  - { offsetInCU: 0x6D53, offset: 0x6D53, size: 0x8, addend: 0x0, symName: __ZNSt3__112basic_stringIcNS_11char_traitsIcEENS_9allocatorIcEEE13__get_pointerB7v160006Ev, symObjAddr: 0x2A40, symBinAddr: 0x10000394C, symSize: 0x54 }
  - { offsetInCU: 0x6D77, offset: 0x6D77, size: 0x8, addend: 0x0, symName: __ZNSt3__112basic_stringIcNS_11char_traitsIcEENS_9allocatorIcEEE18__get_long_pointerB7v160006Ev, symObjAddr: 0x2A94, symBinAddr: 0x1000039A0, symSize: 0x28 }
  - { offsetInCU: 0x6D9B, offset: 0x6D9B, size: 0x8, addend: 0x0, symName: __ZNSt3__112basic_stringIcNS_11char_traitsIcEENS_9allocatorIcEEE19__get_short_pointerB7v160006Ev, symObjAddr: 0x2ABC, symBinAddr: 0x1000039C8, symSize: 0x28 }
  - { offsetInCU: 0x6DBF, offset: 0x6DBF, size: 0x8, addend: 0x0, symName: __ZNSt3__114pointer_traitsIPcE10pointer_toB7v160006ERc, symObjAddr: 0x2AE4, symBinAddr: 0x1000039F0, symSize: 0x14 }
  - { offsetInCU: 0x6DE1, offset: 0x6DE1, size: 0x8, addend: 0x0, symName: __ZNSt3__112basic_stringIcNS_11char_traitsIcEENS_9allocatorIcEEEC2B7v160006IDnEEPKc, symObjAddr: 0x2AF8, symBinAddr: 0x100003A04, symSize: 0x60 }
  - { offsetInCU: 0x6E22, offset: 0x6E22, size: 0x8, addend: 0x0, symName: __ZNSt3__117__compressed_pairINS_12basic_stringIcNS_11char_traitsIcEENS_9allocatorIcEEE5__repES5_EC1B7v160006INS_18__default_init_tagESA_EEOT_OT0_, symObjAddr: 0x2B58, symBinAddr: 0x100003A64, symSize: 0x3C }
  - { offsetInCU: 0x6E78, offset: 0x6E78, size: 0x8, addend: 0x0, symName: __ZNSt3__111char_traitsIcE6lengthEPKc, symObjAddr: 0x2B94, symBinAddr: 0x100003AA0, symSize: 0x48 }
  - { offsetInCU: 0x6E9A, offset: 0x6E9A, size: 0x8, addend: 0x0, symName: __ZNSt3__117__compressed_pairINS_12basic_stringIcNS_11char_traitsIcEENS_9allocatorIcEEE5__repES5_EC2B7v160006INS_18__default_init_tagESA_EEOT_OT0_, symObjAddr: 0x2BEC, symBinAddr: 0x100003AF8, symSize: 0x3C }
  - { offsetInCU: 0x6EF0, offset: 0x6EF0, size: 0x8, addend: 0x0, symName: __ZNSt3__122__compressed_pair_elemINS_12basic_stringIcNS_11char_traitsIcEENS_9allocatorIcEEE5__repELi0ELb0EEC2B7v160006ENS_18__default_init_tagE, symObjAddr: 0x2C28, symBinAddr: 0x100003B34, symSize: 0x14 }
  - { offsetInCU: 0x6F22, offset: 0x6F22, size: 0x8, addend: 0x0, symName: __ZNSt3__122__compressed_pair_elemINS_9allocatorIcEELi1ELb1EEC2B7v160006ENS_18__default_init_tagE, symObjAddr: 0x2C3C, symBinAddr: 0x100003B48, symSize: 0x2C }
  - { offsetInCU: 0x6F54, offset: 0x6F54, size: 0x8, addend: 0x0, symName: __ZNSt3__19allocatorIcEC2B7v160006Ev, symObjAddr: 0x2C68, symBinAddr: 0x100003B74, symSize: 0x2C }
  - { offsetInCU: 0x6F7C, offset: 0x6F7C, size: 0x8, addend: 0x0, symName: __ZNSt3__116__non_trivial_ifILb1ENS_9allocatorIcEEEC2B7v160006Ev, symObjAddr: 0x2C94, symBinAddr: 0x100003BA0, symSize: 0x14 }
...
